target datalayout = "e-m:e-p270:32:32-p271:32:32-p272:64:64-i64:64-i128:128-f80:128-n8:16:32:64-S128"
target triple = "x86_64-pc-linux-gnu"

%struct.SDL_DriverXboxOne_Context = type { ptr, i16, i16, i32, i64, i8, i64, i8, i8, i8, i8, i8, i8, i8, i8, i8, i8, i8, i32, i64, i8, [64 x i8], ptr, i32 }
%struct.gip_header = type <{ i8, i8, i8, i32, i32 }>

; Function Attrs: nounwind uwtable
define internal void @HIDAPI_DriverXboxOne_HandleUnmappedStatePacket(ptr noundef %0, ptr noundef %1, ptr noundef %2, i32 noundef %3) #0 {
  %5 = alloca ptr, align 8
  %6 = alloca ptr, align 8
  %7 = alloca ptr, align 8
  %8 = alloca i32, align 4
  %9 = alloca i8, align 1
  %10 = alloca i32, align 4
  %11 = alloca i32, align 4
  %12 = alloca i32, align 4
  %13 = alloca i32, align 4
  %14 = alloca i32, align 4
  %15 = alloca i8, align 1
  %16 = alloca i64, align 8
  %17 = alloca i32, align 4
  %18 = alloca i8, align 1
  store ptr %0, ptr %5, align 8
  store ptr %1, ptr %6, align 8
  store ptr %2, ptr %7, align 8
  store i32 %3, ptr %8, align 4
  call void @llvm.lifetime.start.p0(i64 1, ptr %9) #6
  call void @llvm.lifetime.start.p0(i64 4, ptr %10) #6
  call void @llvm.lifetime.start.p0(i64 4, ptr %11) #6
  call void @llvm.lifetime.start.p0(i64 4, ptr %12) #6
  call void @llvm.lifetime.start.p0(i64 4, ptr %13) #6
  call void @llvm.lifetime.start.p0(i64 4, ptr %14) #6
  call void @llvm.lifetime.start.p0(i64 1, ptr %15) #6
  call void @llvm.lifetime.start.p0(i64 8, ptr %16) #6
  %19 = call i64 @SDL_GetTicksNS_REAL()
  store i64 %19, ptr %16, align 8
  %20 = load i32, ptr %8, align 4
  %21 = icmp eq i32 %20, 17
  br i1 %21, label %22, label %42

22:                                               ; preds = %4
  store i32 14, ptr %10, align 4
  store i32 1, ptr %11, align 4
  store i32 2, ptr %12, align 4
  store i32 4, ptr %13, align 4
  store i32 8, ptr %14, align 4
  %23 = load ptr, ptr %7, align 8
  %24 = getelementptr inbounds i8, ptr %23, i64 15
  %25 = load i8, ptr %24, align 1
  store i8 %25, ptr %9, align 1
  %26 = load i8, ptr %9, align 1
  %27 = zext i8 %26 to i32
  %28 = icmp eq i32 %27, 0
  br i1 %28, label %29, label %30

29:                                               ; preds = %22
  store i8 0, ptr %15, align 1
  br label %41

30:                                               ; preds = %22
  %31 = load ptr, ptr %7, align 8
  %32 = getelementptr inbounds i8, ptr %31, i64 0
  %33 = load ptr, ptr %6, align 8
  %34 = getelementptr inbounds nuw %struct.SDL_DriverXboxOne_Context, ptr %33, i32 0, i32 21
  %35 = getelementptr inbounds [64 x i8], ptr %34, i64 0, i64 0
  %36 = call i32 @SDL_memcmp_REAL(ptr noundef %32, ptr noundef %35, i64 noundef 14)
  %37 = icmp eq i32 %36, 0
  br i1 %37, label %38, label %39

38:                                               ; preds = %30
  store i8 0, ptr %15, align 1
  br label %40

39:                                               ; preds = %30
  store i8 1, ptr %15, align 1
  br label %40

40:                                               ; preds = %39, %38
  br label %41

41:                                               ; preds = %40, %29
  br label %43

42:                                               ; preds = %4
  store i32 1, ptr %17, align 4
  br label %133

43:                                               ; preds = %41
  %44 = load i8, ptr %15, align 1, !range !3, !noundef !4
  %45 = trunc i8 %44 to i1
  br i1 %45, label %46, label %51

46:                                               ; preds = %43
  %47 = load ptr, ptr %7, align 8
  %48 = load i32, ptr %10, align 4
  %49 = sext i32 %48 to i64
  %50 = getelementptr inbounds i8, ptr %47, i64 %49
  store i8 0, ptr %50, align 1
  br label %51

51:                                               ; preds = %46, %43
  %52 = load ptr, ptr %6, align 8
  %53 = getelementptr inbounds nuw %struct.SDL_DriverXboxOne_Context, ptr %52, i32 0, i32 13
  %54 = load i8, ptr %53, align 2
  %55 = zext i8 %54 to i32
  %56 = load ptr, ptr %7, align 8
  %57 = load i32, ptr %10, align 4
  %58 = sext i32 %57 to i64
  %59 = getelementptr inbounds i8, ptr %56, i64 %58
  %60 = load i8, ptr %59, align 1
  %61 = zext i8 %60 to i32
  %62 = icmp ne i32 %55, %61
  br i1 %62, label %63, label %130

63:                                               ; preds = %51
  call void @llvm.lifetime.start.p0(i64 1, ptr %18) #6
  %64 = load ptr, ptr %6, align 8
  %65 = getelementptr inbounds nuw %struct.SDL_DriverXboxOne_Context, ptr %64, i32 0, i32 12
  %66 = load i8, ptr %65, align 1, !range !3, !noundef !4
  %67 = trunc i8 %66 to i1
  %68 = zext i1 %67 to i32
  %69 = add nsw i32 11, %68
  %70 = trunc i32 %69 to i8
  store i8 %70, ptr %18, align 1
  %71 = load i64, ptr %16, align 8
  %72 = load ptr, ptr %5, align 8
  %73 = load i8, ptr %18, align 1
  %74 = add i8 %73, 1
  store i8 %74, ptr %18, align 1
  %75 = load ptr, ptr %7, align 8
  %76 = load i32, ptr %10, align 4
  %77 = sext i32 %76 to i64
  %78 = getelementptr inbounds i8, ptr %75, i64 %77
  %79 = load i8, ptr %78, align 1
  %80 = zext i8 %79 to i32
  %81 = load i32, ptr %11, align 4
  %82 = and i32 %80, %81
  %83 = icmp ne i32 %82, 0
  call void @SDL_SendJoystickButton(i64 noundef %71, ptr noundef %72, i8 noundef zeroext %73, i1 noundef zeroext %83)
  %84 = load i64, ptr %16, align 8
  %85 = load ptr, ptr %5, align 8
  %86 = load i8, ptr %18, align 1
  %87 = add i8 %86, 1
  store i8 %87, ptr %18, align 1
  %88 = load ptr, ptr %7, align 8
  %89 = load i32, ptr %10, align 4
  %90 = sext i32 %89 to i64
  %91 = getelementptr inbounds i8, ptr %88, i64 %90
  %92 = load i8, ptr %91, align 1
  %93 = zext i8 %92 to i32
  %94 = load i32, ptr %12, align 4
  %95 = and i32 %93, %94
  %96 = icmp ne i32 %95, 0
  call void @SDL_SendJoystickButton(i64 noundef %84, ptr noundef %85, i8 noundef zeroext %86, i1 noundef zeroext %96)
  %97 = load i64, ptr %16, align 8
  %98 = load ptr, ptr %5, align 8
  %99 = load i8, ptr %18, align 1
  %100 = add i8 %99, 1
  store i8 %100, ptr %18, align 1
  %101 = load ptr, ptr %7, align 8
  %102 = load i32, ptr %10, align 4
  %103 = sext i32 %102 to i64
  %104 = getelementptr inbounds i8, ptr %101, i64 %103
  %105 = load i8, ptr %104, align 1
  %106 = zext i8 %105 to i32
  %107 = load i32, ptr %13, align 4
  %108 = and i32 %106, %107
  %109 = icmp ne i32 %108, 0
  call void @SDL_SendJoystickButton(i64 noundef %97, ptr noundef %98, i8 noundef zeroext %99, i1 noundef zeroext %109)
  %110 = load i64, ptr %16, align 8
  %111 = load ptr, ptr %5, align 8
  %112 = load i8, ptr %18, align 1
  %113 = add i8 %112, 1
  store i8 %113, ptr %18, align 1
  %114 = load ptr, ptr %7, align 8
  %115 = load i32, ptr %10, align 4
  %116 = sext i32 %115 to i64
  %117 = getelementptr inbounds i8, ptr %114, i64 %116
  %118 = load i8, ptr %117, align 1
  %119 = zext i8 %118 to i32
  %120 = load i32, ptr %14, align 4
  %121 = and i32 %119, %120
  %122 = icmp ne i32 %121, 0
  call void @SDL_SendJoystickButton(i64 noundef %110, ptr noundef %111, i8 noundef zeroext %112, i1 noundef zeroext %122)
  %123 = load ptr, ptr %7, align 8
  %124 = load i32, ptr %10, align 4
  %125 = sext i32 %124 to i64
  %126 = getelementptr inbounds i8, ptr %123, i64 %125
  %127 = load i8, ptr %126, align 1
  %128 = load ptr, ptr %6, align 8
  %129 = getelementptr inbounds nuw %struct.SDL_DriverXboxOne_Context, ptr %128, i32 0, i32 13
  store i8 %127, ptr %129, align 2
  call void @llvm.lifetime.end.p0(i64 1, ptr %18) #6
  br label %130

130:                                              ; preds = %63, %51
  %131 = load ptr, ptr %6, align 8
  %132 = getelementptr inbounds nuw %struct.SDL_DriverXboxOne_Context, ptr %131, i32 0, i32 10
  store i8 1, ptr %132, align 1
  store i32 0, ptr %17, align 4
  br label %133

133:                                              ; preds = %130, %42
  call void @llvm.lifetime.end.p0(i64 8, ptr %16) #6
  call void @llvm.lifetime.end.p0(i64 1, ptr %15) #6
  call void @llvm.lifetime.end.p0(i64 4, ptr %14) #6
  call void @llvm.lifetime.end.p0(i64 4, ptr %13) #6
  call void @llvm.lifetime.end.p0(i64 4, ptr %12) #6
  call void @llvm.lifetime.end.p0(i64 4, ptr %11) #6
  call void @llvm.lifetime.end.p0(i64 4, ptr %10) #6
  call void @llvm.lifetime.end.p0(i64 1, ptr %9) #6
  %134 = load i32, ptr %17, align 4
  switch i32 %134, label %136 [
    i32 0, label %135
    i32 1, label %135
  ]

135:                                              ; preds = %133, %133
  ret void

136:                                              ; preds = %133
  unreachable
}

; Function Attrs: nounwind uwtable
define internal void @HIDAPI_DriverXboxOne_HandleSerialIDPacket(ptr noundef %0, ptr noundef %1, i32 noundef %2) #0 {
  %4 = alloca ptr, align 8
  %5 = alloca ptr, align 8
  %6 = alloca i32, align 4
  %7 = alloca [29 x i8], align 16
  %8 = alloca i32, align 4
  store ptr %0, ptr %4, align 8
  store ptr %1, ptr %5, align 8
  store i32 %2, ptr %6, align 4
  call void @llvm.lifetime.start.p0(i64 29, ptr %7) #6
  call void @llvm.lifetime.start.p0(i64 4, ptr %8) #6
  store i32 0, ptr %8, align 4
  br label %9

9:                                                ; preds = %25, %3
  %10 = load i32, ptr %8, align 4
  %11 = icmp slt i32 %10, 14
  br i1 %11, label %12, label %28

12:                                               ; preds = %9
  %13 = load ptr, ptr %5, align 8
  %14 = load i32, ptr %8, align 4
  %15 = add nsw i32 2, %14
  %16 = sext i32 %15 to i64
  %17 = getelementptr inbounds i8, ptr %13, i64 %16
  %18 = load i8, ptr %17, align 1
  %19 = zext i8 %18 to i32
  %20 = load i32, ptr %8, align 4
  %21 = mul nsw i32 %20, 2
  %22 = sext i32 %21 to i64
  %23 = getelementptr inbounds [29 x i8], ptr %7, i64 0, i64 %22
  %24 = call ptr @SDL_uitoa_REAL(i32 noundef %19, ptr noundef %23, i32 noundef 16)
  br label %25

25:                                               ; preds = %12
  %26 = load i32, ptr %8, align 4
  %27 = add nsw i32 %26, 1
  store i32 %27, ptr %8, align 4
  br label %9, !llvm.loop !13

28:                                               ; preds = %9
  %29 = load i32, ptr %8, align 4
  %30 = mul nsw i32 %29, 2
  %31 = sext i32 %30 to i64
  %32 = getelementptr inbounds [29 x i8], ptr %7, i64 0, i64 %31
  store i8 0, ptr %32, align 1
  %33 = load ptr, ptr %4, align 8
  %34 = getelementptr inbounds nuw %struct.SDL_DriverXboxOne_Context, ptr %33, i32 0, i32 0
  %35 = load ptr, ptr %34, align 8
  %36 = getelementptr inbounds [29 x i8], ptr %7, i64 0, i64 0
  call void @HIDAPI_SetDeviceSerial(ptr noundef %35, ptr noundef %36)
  call void @llvm.lifetime.end.p0(i64 4, ptr %8) #6
  call void @llvm.lifetime.end.p0(i64 29, ptr %7) #6
  ret void
}

; Function Attrs: nounwind uwtable
define internal void @HIDAPI_DriverXboxOne_HandleStatusPacket(ptr noundef %0, ptr noundef %1, i32 noundef %2) #0 {
  %4 = alloca ptr, align 8
  %5 = alloca ptr, align 8
  %6 = alloca i32, align 4
  store ptr %0, ptr %4, align 8
  store ptr %1, ptr %5, align 8
  store i32 %2, ptr %6, align 4
  %7 = load ptr, ptr %4, align 8
  %8 = getelementptr inbounds nuw %struct.SDL_DriverXboxOne_Context, ptr %7, i32 0, i32 3
  %9 = load i32, ptr %8, align 4
  %10 = icmp ult i32 %9, 4
  br i1 %10, label %11, label %13

11:                                               ; preds = %3
  %12 = load ptr, ptr %4, align 8
  call void @SetInitState(ptr noundef %12, i32 noundef 4)
  br label %13

13:                                               ; preds = %11, %3
  ret void
}

; Function Attrs: nounwind uwtable
define internal void @SetInitState(ptr noundef %0, i32 noundef %1) #0 {
  %3 = alloca ptr, align 8
  %4 = alloca i32, align 4
  store ptr %0, ptr %3, align 8
  store i32 %1, ptr %4, align 4
  %5 = load i32, ptr %4, align 4
  %6 = load ptr, ptr %3, align 8
  %7 = getelementptr inbounds nuw %struct.SDL_DriverXboxOne_Context, ptr %6, i32 0, i32 3
  store i32 %5, ptr %7, align 4
  ret void
}

; Function Attrs: nounwind uwtable
define internal zeroext i1 @HIDAPI_GIP_DispatchPacket(ptr noundef %0, ptr noundef %1, ptr noundef %2, ptr noundef %3, i32 noundef %4) #0 {
  %6 = alloca i1, align 1
  %7 = alloca ptr, align 8
  %8 = alloca ptr, align 8
  %9 = alloca ptr, align 8
  %10 = alloca ptr, align 8
  %11 = alloca i32, align 4
  store ptr %0, ptr %7, align 8
  store ptr %1, ptr %8, align 8
  store ptr %2, ptr %9, align 8
  store ptr %3, ptr %10, align 8
  store i32 %4, ptr %11, align 4
  %12 = load ptr, ptr %9, align 8
  %13 = getelementptr inbounds nuw %struct.gip_header, ptr %12, i32 0, i32 1
  %14 = load i8, ptr %13, align 1
  %15 = zext i8 %14 to i32
  %16 = and i32 %15, 15
  %17 = icmp ne i32 %16, 0
  br i1 %17, label %18, label %19

18:                                               ; preds = %5
  store i1 true, ptr %6, align 1
  br label %87

19:                                               ; preds = %5
  %20 = load ptr, ptr %9, align 8
  %21 = getelementptr inbounds nuw %struct.gip_header, ptr %20, i32 0, i32 1
  %22 = load i8, ptr %21, align 1
  %23 = zext i8 %22 to i32
  %24 = and i32 %23, 32
  %25 = icmp ne i32 %24, 0
  br i1 %25, label %26, label %54

26:                                               ; preds = %19
  %27 = load ptr, ptr %9, align 8
  %28 = getelementptr inbounds nuw %struct.gip_header, ptr %27, i32 0, i32 0
  %29 = load i8, ptr %28, align 1
  %30 = zext i8 %29 to i32
  switch i32 %30, label %52 [
    i32 1, label %53
    i32 2, label %31
    i32 3, label %33
    i32 4, label %37
    i32 5, label %53
    i32 6, label %53
    i32 7, label %39
    i32 30, label %48
  ]

31:                                               ; preds = %26
  %32 = load ptr, ptr %8, align 8
  call void @SetInitState(ptr noundef %32, i32 noundef 0)
  br label %53

33:                                               ; preds = %26
  %34 = load ptr, ptr %8, align 8
  %35 = load ptr, ptr %10, align 8
  %36 = load i32, ptr %11, align 4
  call void @HIDAPI_DriverXboxOne_HandleStatusPacket(ptr noundef %34, ptr noundef %35, i32 noundef %36)
  br label %53

37:                                               ; preds = %26
  %38 = load ptr, ptr %8, align 8
  call void @SetInitState(ptr noundef %38, i32 noundef 2)
  br label %53

39:                                               ; preds = %26
  %40 = load ptr, ptr %7, align 8
  %41 = icmp ne ptr %40, null
  br i1 %41, label %43, label %42

42:                                               ; preds = %39
  br label %53

43:                                               ; preds = %39
  %44 = load ptr, ptr %7, align 8
  %45 = load ptr, ptr %8, align 8
  %46 = load ptr, ptr %10, align 8
  %47 = load i32, ptr %11, align 4
  call void @HIDAPI_DriverXboxOne_HandleModePacket(ptr noundef %44, ptr noundef %45, ptr noundef %46, i32 noundef %47)
  br label %53

48:                                               ; preds = %26
  %49 = load ptr, ptr %8, align 8
  %50 = load ptr, ptr %10, align 8
  %51 = load i32, ptr %11, align 4
  call void @HIDAPI_DriverXboxOne_HandleSerialIDPacket(ptr noundef %49, ptr noundef %50, i32 noundef %51)
  br label %53

52:                                               ; preds = %26
  br label %53

53:                                               ; preds = %52, %48, %43, %42, %26, %26, %37, %33, %31, %26
  br label %86

54:                                               ; preds = %19
  %55 = load ptr, ptr %9, align 8
  %56 = getelementptr inbounds nuw %struct.gip_header, ptr %55, i32 0, i32 0
  %57 = load i8, ptr %56, align 1
  %58 = zext i8 %57 to i32
  switch i32 %58, label %84 [
    i32 32, label %59
    i32 12, label %75
  ]

59:                                               ; preds = %54
  %60 = load ptr, ptr %8, align 8
  %61 = getelementptr inbounds nuw %struct.SDL_DriverXboxOne_Context, ptr %60, i32 0, i32 3
  %62 = load i32, ptr %61, align 4
  %63 = icmp ult i32 %62, 4
  br i1 %63, label %64, label %66

64:                                               ; preds = %59
  %65 = load ptr, ptr %8, align 8
  call void @SetInitState(ptr noundef %65, i32 noundef 4)
  br label %85

66:                                               ; preds = %59
  %67 = load ptr, ptr %7, align 8
  %68 = icmp ne ptr %67, null
  br i1 %68, label %70, label %69

69:                                               ; preds = %66
  br label %85

70:                                               ; preds = %66
  %71 = load ptr, ptr %7, align 8
  %72 = load ptr, ptr %8, align 8
  %73 = load ptr, ptr %10, align 8
  %74 = load i32, ptr %11, align 4
  call void @HIDAPI_DriverXboxOne_HandleStatePacket(ptr noundef %71, ptr noundef %72, ptr noundef %73, i32 noundef %74)
  br label %85

75:                                               ; preds = %54
  %76 = load ptr, ptr %7, align 8
  %77 = icmp ne ptr %76, null
  br i1 %77, label %79, label %78

78:                                               ; preds = %75
  br label %85

79:                                               ; preds = %75
  %80 = load ptr, ptr %7, align 8
  %81 = load ptr, ptr %8, align 8
  %82 = load ptr, ptr %10, align 8
  %83 = load i32, ptr %11, align 4
  call void @HIDAPI_DriverXboxOne_HandleUnmappedStatePacket(ptr noundef %80, ptr noundef %81, ptr noundef %82, i32 noundef %83)
  br label %85

84:                                               ; preds = %54
  br label %85

85:                                               ; preds = %84, %79, %78, %70, %69, %64
  br label %86

86:                                               ; preds = %85, %53
  store i1 true, ptr %6, align 1
  br label %87

87:                                               ; preds = %86, %18
  %88 = load i1, ptr %6, align 1
  ret i1 %88
}